target datalayout = "e-m:e-p270:32:32-p271:32:32-p272:64:64-i64:64-i128:128-f80:128-n8:16:32:64-S128"
target triple = "x86_64-pc-linux-gnu"

%struct.strbuf = type { i64, i64, ptr }
%struct.worktree = type { ptr, ptr, ptr, ptr, ptr, ptr, %struct.object_id, i32, i32, i32, i32, i32 }
%struct.object_id = type { [32 x i8], i32 }
%struct.__va_list_tag = type { i32, i32, ptr, ptr }

@get_pathname.pathname_array = internal global [4 x %struct.strbuf] [%struct.strbuf { i64 0, i64 0, ptr @strbuf_slopbuf }, %struct.strbuf { i64 0, i64 0, ptr @strbuf_slopbuf }, %struct.strbuf { i64 0, i64 0, ptr @strbuf_slopbuf }, %struct.strbuf { i64 0, i64 0, ptr @strbuf_slopbuf }], align 16
@strbuf_slopbuf = external global [0 x i8], align 1
@get_pathname.index = internal global i32 0, align 4
@.str.1 = private unnamed_addr constant [7 x i8] c"path.c\00", align 1
@.str.2 = private unnamed_addr constant [46 x i8] c"worktree not connected to expected repository\00", align 1
@.str.36 = private unnamed_addr constant [11 x i8] c"./strbuf.h\00", align 1
@.str.37 = private unnamed_addr constant [30 x i8] c"strbuf_setlen() beyond buffer\00", align 1

; Function Attrs: inlinehint nounwind uwtable
define internal void @strbuf_setlen(ptr noundef %0, i64 noundef %1) #2 {
  %3 = alloca ptr, align 8
  %4 = alloca i64, align 8
  store ptr %0, ptr %3, align 8, !tbaa !8
  store i64 %1, ptr %4, align 8, !tbaa !11
  %5 = load i64, ptr %4, align 8, !tbaa !11
  %6 = load ptr, ptr %3, align 8, !tbaa !8
  %7 = getelementptr inbounds nuw %struct.strbuf, ptr %6, i32 0, i32 0
  %8 = load i64, ptr %7, align 8, !tbaa !13
  %9 = icmp ne i64 %8, 0
  br i1 %9, label %10, label %15

10:                                               ; preds = %2
  %11 = load ptr, ptr %3, align 8, !tbaa !8
  %12 = getelementptr inbounds nuw %struct.strbuf, ptr %11, i32 0, i32 0
  %13 = load i64, ptr %12, align 8, !tbaa !13
  %14 = sub i64 %13, 1
  br label %16

15:                                               ; preds = %2
  br label %16

16:                                               ; preds = %15, %10
  %17 = phi i64 [ %14, %10 ], [ 0, %15 ]
  %18 = icmp ugt i64 %5, %17
  br i1 %18, label %19, label %20

19:                                               ; preds = %16
  call void (ptr, i32, ptr, ...) @BUG_fl(ptr noundef @.str.36, i32 noundef 167, ptr noundef @.str.37) #13
  unreachable

20:                                               ; preds = %16
  %21 = load i64, ptr %4, align 8, !tbaa !11
  %22 = load ptr, ptr %3, align 8, !tbaa !8
  %23 = getelementptr inbounds nuw %struct.strbuf, ptr %22, i32 0, i32 1
  store i64 %21, ptr %23, align 8, !tbaa !16
  %24 = load ptr, ptr %3, align 8, !tbaa !8
  %25 = getelementptr inbounds nuw %struct.strbuf, ptr %24, i32 0, i32 2
  %26 = load ptr, ptr %25, align 8, !tbaa !17
  %27 = icmp ne ptr %26, @strbuf_slopbuf
  br i1 %27, label %28, label %34

28:                                               ; preds = %20
  %29 = load ptr, ptr %3, align 8, !tbaa !8
  %30 = getelementptr inbounds nuw %struct.strbuf, ptr %29, i32 0, i32 2
  %31 = load ptr, ptr %30, align 8, !tbaa !17
  %32 = load i64, ptr %4, align 8, !tbaa !11
  %33 = getelementptr inbounds nuw i8, ptr %31, i64 %32
  store i8 0, ptr %33, align 1, !tbaa !18
  br label %35

34:                                               ; preds = %20
  br label %35

35:                                               ; preds = %34, %28
  ret void
}

; Function Attrs: nounwind uwtable
define dso_local ptr @get_pathname() #0 {
  %1 = alloca ptr, align 8
  call void @llvm.lifetime.start.p0(i64 8, ptr %1) #12
  %2 = load i32, ptr @get_pathname.index, align 4, !tbaa !4
  %3 = sext i32 %2 to i64
  %4 = getelementptr inbounds [4 x %struct.strbuf], ptr @get_pathname.pathname_array, i64 0, i64 %3
  store ptr %4, ptr %1, align 8, !tbaa !8
  %5 = load i32, ptr @get_pathname.index, align 4, !tbaa !4
  %6 = add nsw i32 %5, 1
  %7 = sext i32 %6 to i64
  %8 = urem i64 %7, 4
  %9 = trunc i64 %8 to i32
  store i32 %9, ptr @get_pathname.index, align 4, !tbaa !4
  %10 = load ptr, ptr %1, align 8, !tbaa !8
  call void @strbuf_setlen(ptr noundef %10, i64 noundef 0)
  %11 = load ptr, ptr %1, align 8, !tbaa !8
  call void @llvm.lifetime.end.p0(i64 8, ptr %1) #12
  ret ptr %11
}

; Function Attrs: nounwind uwtable
define dso_local ptr @worktree_git_path(ptr noundef %0, ptr noundef %1, ptr noundef %2, ...) #0 {
  %4 = alloca ptr, align 8
  %5 = alloca ptr, align 8
  %6 = alloca ptr, align 8
  %7 = alloca ptr, align 8
  %8 = alloca [1 x %struct.__va_list_tag], align 16
  store ptr %0, ptr %4, align 8, !tbaa !19
  store ptr %1, ptr %5, align 8, !tbaa !47
  store ptr %2, ptr %6, align 8, !tbaa !43
  call void @llvm.lifetime.start.p0(i64 8, ptr %7) #12
  %9 = call ptr @get_pathname()
  store ptr %9, ptr %7, align 8, !tbaa !8
  call void @llvm.lifetime.start.p0(i64 24, ptr %8) #12
  %10 = load ptr, ptr %5, align 8, !tbaa !47
  %11 = icmp ne ptr %10, null
  br i1 %11, label %12, label %19

12:                                               ; preds = %3
  %13 = load ptr, ptr %5, align 8, !tbaa !47
  %14 = getelementptr inbounds nuw %struct.worktree, ptr %13, i32 0, i32 0
  %15 = load ptr, ptr %14, align 8, !tbaa !76
  %16 = load ptr, ptr %4, align 8, !tbaa !19
  %17 = icmp ne ptr %15, %16
  br i1 %17, label %18, label %19

18:                                               ; preds = %12
  call void (ptr, i32, ptr, ...) @BUG_fl(ptr noundef @.str.1, i32 noundef 484, ptr noundef @.str.2) #13
  unreachable

19:                                               ; preds = %12, %3
  %20 = getelementptr inbounds [1 x %struct.__va_list_tag], ptr %8, i64 0, i64 0
  call void @llvm.va_start.p0(ptr %20)
  %21 = load ptr, ptr %4, align 8, !tbaa !19
  %22 = load ptr, ptr %5, align 8, !tbaa !47
  %23 = load ptr, ptr %7, align 8, !tbaa !8
  %24 = load ptr, ptr %6, align 8, !tbaa !43
  %25 = getelementptr inbounds [1 x %struct.__va_list_tag], ptr %8, i64 0, i64 0
  call void @repo_git_pathv(ptr noundef %21, ptr noundef %22, ptr noundef %23, ptr noundef %24, ptr noundef %25)
  %26 = getelementptr inbounds [1 x %struct.__va_list_tag], ptr %8, i64 0, i64 0
  call void @llvm.va_end.p0(ptr %26)
  %27 = load ptr, ptr %7, align 8, !tbaa !8
  %28 = getelementptr inbounds nuw %struct.strbuf, ptr %27, i32 0, i32 2
  %29 = load ptr, ptr %28, align 8, !tbaa !17
  call void @llvm.lifetime.end.p0(i64 24, ptr %8) #12
  call void @llvm.lifetime.end.p0(i64 8, ptr %7) #12
  ret ptr %29
}