; Function Attrs: nounwind uwtable
define dso_local ptr @worktree_git_path(ptr noundef readonly %0, ptr noundef %1, ptr noundef %2, ...) local_unnamed_addr #3 {
  %4 = alloca [1 x %struct.__va_list_tag], align 16
  %5 = load i32, ptr @get_pathname.index, align 4, !tbaa !4
  %6 = zext nneg i32 %5 to i64
  %7 = getelementptr inbounds nuw [4 x %struct.strbuf], ptr @get_pathname.pathname_array, i64 0, i64 %6
  %8 = add nuw nsw i32 %5, 1
  %9 = and i32 %8, 3
  store i32 %9, ptr @get_pathname.index, align 4, !tbaa !4
  %10 = getelementptr inbounds nuw i8, ptr %7, i64 8
  store i64 0, ptr %10, align 8, !tbaa !8
  %11 = getelementptr inbounds nuw i8, ptr %7, i64 16
  %12 = load ptr, ptr %11, align 8, !tbaa !13
  %.not9.i.i = icmp eq ptr %12, @strbuf_slopbuf
  br i1 %.not9.i.i, label %get_pathname.exit, label %13

13:                                               ; preds = %3
  store i8 0, ptr %12, align 1, !tbaa !14
  br label %get_pathname.exit

get_pathname.exit:                                ; preds = %3, %13
  call void @llvm.lifetime.start.p0(i64 24, ptr nonnull %4) #29
  %.not = icmp eq ptr %1, null
  br i1 %.not, label %.split, label %14

14:                                               ; preds = %get_pathname.exit
  %15 = load ptr, ptr %1, align 8, !tbaa !68
  %.not10 = icmp eq ptr %15, %0
  br i1 %.not10, label %.split, label %16

16:                                               ; preds = %14
  tail call void (ptr, i32, ptr, ...) @BUG_fl(ptr noundef nonnull @.str.1, i32 noundef 484, ptr noundef nonnull @.str.2) #28
  unreachable

.split:                                           ; preds = %14, %get_pathname.exit
  %.sink = phi ptr [ null, %get_pathname.exit ], [ %1, %14 ]
  call void @llvm.va_start.p0(ptr nonnull %4)
  call void @repo_git_pathv(ptr noundef %0, ptr noundef %.sink, ptr noundef nonnull %7, ptr noundef %2, ptr noundef nonnull %4)
  call void @llvm.va_end.p0(ptr nonnull %4)
  %17 = load ptr, ptr %11, align 8, !tbaa !13
  call void @llvm.lifetime.end.p0(i64 24, ptr nonnull %4) #29
  ret ptr %17
}